target datalayout = "e-m:e-p270:32:32-p271:32:32-p272:64:64-i64:64-i128:128-f80:128-n8:16:32:64-S128"
target triple = "x86_64-pc-linux-gnu"

@session_id_prefix = internal global ptr null, align 8

; Function Attrs: nounwind uwtable
define internal i32 @generate_session_id(ptr noundef %0, ptr noundef %1, ptr noundef %2) #0 {
  %4 = alloca i32, align 4
  %5 = alloca ptr, align 8
  %6 = alloca ptr, align 8
  %7 = alloca ptr, align 8
  %8 = alloca i32, align 4
  %9 = alloca i32, align 4
  %10 = alloca i32, align 4
  store ptr %0, ptr %5, align 8, !tbaa !73
  store ptr %1, ptr %6, align 8, !tbaa !31
  store ptr %2, ptr %7, align 8, !tbaa !75
  call void @llvm.lifetime.start.p0(i64 4, ptr %8) #10
  store i32 0, ptr %8, align 4, !tbaa !4
  call void @llvm.lifetime.start.p0(i64 4, ptr %9) #10
  %11 = load ptr, ptr @session_id_prefix, align 8, !tbaa !31
  %12 = call i64 @strlen(ptr noundef %11) #11
  %13 = trunc i64 %12 to i32
  store i32 %13, ptr %9, align 4, !tbaa !4
  br label %14

14:                                               ; preds = %47, %3
  %15 = load ptr, ptr %6, align 8, !tbaa !31
  %16 = load ptr, ptr %7, align 8, !tbaa !75
  %17 = load i32, ptr %16, align 4, !tbaa !4
  %18 = call i32 @RAND_bytes(ptr noundef %15, i32 noundef %17)
  %19 = icmp sle i32 %18, 0
  br i1 %19, label %20, label %21

20:                                               ; preds = %14
  store i32 0, ptr %4, align 4
  store i32 1, ptr %10, align 4
  br label %54

21:                                               ; preds = %14
  %22 = load ptr, ptr %6, align 8, !tbaa !31
  %23 = load ptr, ptr @session_id_prefix, align 8, !tbaa !31
  %24 = load i32, ptr %9, align 4, !tbaa !4
  %25 = load ptr, ptr %7, align 8, !tbaa !75
  %26 = load i32, ptr %25, align 4, !tbaa !4
  %27 = icmp ult i32 %24, %26
  br i1 %27, label %28, label %30

28:                                               ; preds = %21
  %29 = load i32, ptr %9, align 4, !tbaa !4
  br label %33

30:                                               ; preds = %21
  %31 = load ptr, ptr %7, align 8, !tbaa !75
  %32 = load i32, ptr %31, align 4, !tbaa !4
  br label %33

33:                                               ; preds = %30, %28
  %34 = phi i32 [ %29, %28 ], [ %32, %30 ]
  %35 = zext i32 %34 to i64
  call void @llvm.memcpy.p0.p0.i64(ptr align 1 %22, ptr align 1 %23, i64 %35, i1 false)
  br label %36

36:                                               ; preds = %33
  %37 = load ptr, ptr %5, align 8, !tbaa !73
  %38 = load ptr, ptr %6, align 8, !tbaa !31
  %39 = load ptr, ptr %7, align 8, !tbaa !75
  %40 = load i32, ptr %39, align 4, !tbaa !4
  %41 = call i32 @SSL_has_matching_session_id(ptr noundef %37, ptr noundef %38, i32 noundef %40)
  %42 = icmp ne i32 %41, 0
  br i1 %42, label %43, label %47

43:                                               ; preds = %36
  %44 = load i32, ptr %8, align 4, !tbaa !4
  %45 = add i32 %44, 1
  store i32 %45, ptr %8, align 4, !tbaa !4
  %46 = icmp ult i32 %45, 10
  br label %47

47:                                               ; preds = %43, %36
  %48 = phi i1 [ false, %36 ], [ %46, %43 ]
  br i1 %48, label %14, label %49, !llvm.loop !77

49:                                               ; preds = %47
  %50 = load i32, ptr %8, align 4, !tbaa !4
  %51 = icmp uge i32 %50, 10
  br i1 %51, label %52, label %53

52:                                               ; preds = %49
  store i32 0, ptr %4, align 4
  store i32 1, ptr %10, align 4
  br label %54

53:                                               ; preds = %49
  store i32 1, ptr %4, align 4
  store i32 1, ptr %10, align 4
  br label %54

54:                                               ; preds = %53, %52, %20
  call void @llvm.lifetime.end.p0(i64 4, ptr %9) #10
  call void @llvm.lifetime.end.p0(i64 4, ptr %8) #10
  %55 = load i32, ptr %4, align 4
  ret i32 %55
}