; Function Attrs: nounwind uwtable
define internal range(i32 0, 2) i32 @generate_session_id(ptr noundef %0, ptr noundef %1, ptr noundef readonly captures(none) %2) #0 {
  %4 = load ptr, ptr @session_id_prefix, align 8, !tbaa !11
  %5 = tail call i64 @strlen(ptr noundef nonnull dereferenceable(1) %4) #16
  %6 = trunc i64 %5 to i32
  br label %7

7:                                                ; preds = %17, %3
  %.012 = phi i32 [ 0, %3 ], [ %18, %17 ]
  %8 = load i32, ptr %2, align 4, !tbaa !13
  %9 = tail call i32 @RAND_bytes(ptr noundef %1, i32 noundef %8) #14
  %10 = icmp slt i32 %9, 1
  br i1 %10, label %.loopexit, label %11

11:                                               ; preds = %7
  %12 = load ptr, ptr @session_id_prefix, align 8, !tbaa !11
  %13 = load i32, ptr %2, align 4, !tbaa !13
  %. = tail call i32 @llvm.umin.i32(i32 %13, i32 %6)
  %14 = zext i32 %. to i64
  tail call void @llvm.memcpy.p0.p0.i64(ptr align 1 %1, ptr align 1 %12, i64 %14, i1 false)
  %15 = load i32, ptr %2, align 4, !tbaa !13
  %16 = tail call i32 @SSL_has_matching_session_id(ptr noundef %0, ptr noundef %1, i32 noundef %15) #14
  %.not = icmp eq i32 %16, 0
  br i1 %.not, label %.critedge, label %17

17:                                               ; preds = %11
  %18 = add nuw nsw i32 %.012, 1
  %exitcond.not = icmp eq i32 %18, 10
  br i1 %exitcond.not, label %.critedge, label %7, !llvm.loop !61

.critedge:                                        ; preds = %11, %17
  %.1 = phi i32 [ 10, %17 ], [ %.012, %11 ]
  %19 = icmp samesign ult i32 %.1, 10
  %.17 = zext i1 %19 to i32
  br label %.loopexit

.loopexit:                                        ; preds = %7, %.critedge
  %.0 = phi i32 [ %.17, %.critedge ], [ 0, %7 ]
  ret i32 %.0
}